target datalayout = "e-m:e-p270:32:32-p271:32:32-p272:64:64-i64:64-i128:128-f80:128-n8:16:32:64-S128"
target triple = "x86_64-pc-linux-gnu"

; Function Attrs: nounwind uwtable
define internal i32 @TTransform(ptr noalias noundef %0, ptr noalias noundef %1) #0 {
  %3 = alloca ptr, align 8
  %4 = alloca ptr, align 8
  %5 = alloca i32, align 4
  %6 = alloca [16 x i32], align 16
  %7 = alloca i32, align 4
  %8 = alloca i32, align 4
  %9 = alloca i32, align 4
  %10 = alloca i32, align 4
  %11 = alloca i32, align 4
  %12 = alloca i32, align 4
  %13 = alloca i32, align 4
  %14 = alloca i32, align 4
  %15 = alloca i32, align 4
  %16 = alloca i32, align 4
  %17 = alloca i32, align 4
  %18 = alloca i32, align 4
  %19 = alloca i32, align 4
  store ptr %0, ptr %3, align 8, !tbaa !18
  store ptr %1, ptr %4, align 8, !tbaa !20
  call void @llvm.lifetime.start.p0(i64 4, ptr %5) #8
  store i32 0, ptr %5, align 4, !tbaa !9
  call void @llvm.lifetime.start.p0(i64 64, ptr %6) #8
  call void @llvm.lifetime.start.p0(i64 4, ptr %7) #8
  store i32 0, ptr %7, align 4, !tbaa !9
  br label %20

20:                                               ; preds = %92, %2
  %21 = load i32, ptr %7, align 4, !tbaa !9
  %22 = icmp slt i32 %21, 4
  br i1 %22, label %23, label %97

23:                                               ; preds = %20
  call void @llvm.lifetime.start.p0(i64 4, ptr %8) #8
  %24 = load ptr, ptr %3, align 8, !tbaa !18
  %25 = getelementptr inbounds i8, ptr %24, i64 0
  %26 = load i8, ptr %25, align 1, !tbaa !16
  %27 = zext i8 %26 to i32
  %28 = load ptr, ptr %3, align 8, !tbaa !18
  %29 = getelementptr inbounds i8, ptr %28, i64 2
  %30 = load i8, ptr %29, align 1, !tbaa !16
  %31 = zext i8 %30 to i32
  %32 = add nsw i32 %27, %31
  store i32 %32, ptr %8, align 4, !tbaa !9
  call void @llvm.lifetime.start.p0(i64 4, ptr %9) #8
  %33 = load ptr, ptr %3, align 8, !tbaa !18
  %34 = getelementptr inbounds i8, ptr %33, i64 1
  %35 = load i8, ptr %34, align 1, !tbaa !16
  %36 = zext i8 %35 to i32
  %37 = load ptr, ptr %3, align 8, !tbaa !18
  %38 = getelementptr inbounds i8, ptr %37, i64 3
  %39 = load i8, ptr %38, align 1, !tbaa !16
  %40 = zext i8 %39 to i32
  %41 = add nsw i32 %36, %40
  store i32 %41, ptr %9, align 4, !tbaa !9
  call void @llvm.lifetime.start.p0(i64 4, ptr %10) #8
  %42 = load ptr, ptr %3, align 8, !tbaa !18
  %43 = getelementptr inbounds i8, ptr %42, i64 1
  %44 = load i8, ptr %43, align 1, !tbaa !16
  %45 = zext i8 %44 to i32
  %46 = load ptr, ptr %3, align 8, !tbaa !18
  %47 = getelementptr inbounds i8, ptr %46, i64 3
  %48 = load i8, ptr %47, align 1, !tbaa !16
  %49 = zext i8 %48 to i32
  %50 = sub nsw i32 %45, %49
  store i32 %50, ptr %10, align 4, !tbaa !9
  call void @llvm.lifetime.start.p0(i64 4, ptr %11) #8
  %51 = load ptr, ptr %3, align 8, !tbaa !18
  %52 = getelementptr inbounds i8, ptr %51, i64 0
  %53 = load i8, ptr %52, align 1, !tbaa !16
  %54 = zext i8 %53 to i32
  %55 = load ptr, ptr %3, align 8, !tbaa !18
  %56 = getelementptr inbounds i8, ptr %55, i64 2
  %57 = load i8, ptr %56, align 1, !tbaa !16
  %58 = zext i8 %57 to i32
  %59 = sub nsw i32 %54, %58
  store i32 %59, ptr %11, align 4, !tbaa !9
  %60 = load i32, ptr %8, align 4, !tbaa !9
  %61 = load i32, ptr %9, align 4, !tbaa !9
  %62 = add nsw i32 %60, %61
  %63 = load i32, ptr %7, align 4, !tbaa !9
  %64 = mul nsw i32 %63, 4
  %65 = add nsw i32 0, %64
  %66 = sext i32 %65 to i64
  %67 = getelementptr inbounds [16 x i32], ptr %6, i64 0, i64 %66
  store i32 %62, ptr %67, align 4, !tbaa !9
  %68 = load i32, ptr %11, align 4, !tbaa !9
  %69 = load i32, ptr %10, align 4, !tbaa !9
  %70 = add nsw i32 %68, %69
  %71 = load i32, ptr %7, align 4, !tbaa !9
  %72 = mul nsw i32 %71, 4
  %73 = add nsw i32 1, %72
  %74 = sext i32 %73 to i64
  %75 = getelementptr inbounds [16 x i32], ptr %6, i64 0, i64 %74
  store i32 %70, ptr %75, align 4, !tbaa !9
  %76 = load i32, ptr %11, align 4, !tbaa !9
  %77 = load i32, ptr %10, align 4, !tbaa !9
  %78 = sub nsw i32 %76, %77
  %79 = load i32, ptr %7, align 4, !tbaa !9
  %80 = mul nsw i32 %79, 4
  %81 = add nsw i32 2, %80
  %82 = sext i32 %81 to i64
  %83 = getelementptr inbounds [16 x i32], ptr %6, i64 0, i64 %82
  store i32 %78, ptr %83, align 4, !tbaa !9
  %84 = load i32, ptr %8, align 4, !tbaa !9
  %85 = load i32, ptr %9, align 4, !tbaa !9
  %86 = sub nsw i32 %84, %85
  %87 = load i32, ptr %7, align 4, !tbaa !9
  %88 = mul nsw i32 %87, 4
  %89 = add nsw i32 3, %88
  %90 = sext i32 %89 to i64
  %91 = getelementptr inbounds [16 x i32], ptr %6, i64 0, i64 %90
  store i32 %86, ptr %91, align 4, !tbaa !9
  call void @llvm.lifetime.end.p0(i64 4, ptr %11) #8
  call void @llvm.lifetime.end.p0(i64 4, ptr %10) #8
  call void @llvm.lifetime.end.p0(i64 4, ptr %9) #8
  call void @llvm.lifetime.end.p0(i64 4, ptr %8) #8
  br label %92

92:                                               ; preds = %23
  %93 = load i32, ptr %7, align 4, !tbaa !9
  %94 = add nsw i32 %93, 1
  store i32 %94, ptr %7, align 4, !tbaa !9
  %95 = load ptr, ptr %3, align 8, !tbaa !18
  %96 = getelementptr inbounds i8, ptr %95, i64 32
  store ptr %96, ptr %3, align 8, !tbaa !18
  br label %20, !llvm.loop !40

97:                                               ; preds = %20
  store i32 0, ptr %7, align 4, !tbaa !9
  br label %98

98:                                               ; preds = %194, %97
  %99 = load i32, ptr %7, align 4, !tbaa !9
  %100 = icmp slt i32 %99, 4
  br i1 %100, label %101, label %199

101:                                              ; preds = %98
  call void @llvm.lifetime.start.p0(i64 4, ptr %12) #8
  %102 = load i32, ptr %7, align 4, !tbaa !9
  %103 = add nsw i32 0, %102
  %104 = sext i32 %103 to i64
  %105 = getelementptr inbounds [16 x i32], ptr %6, i64 0, i64 %104
  %106 = load i32, ptr %105, align 4, !tbaa !9
  %107 = load i32, ptr %7, align 4, !tbaa !9
  %108 = add nsw i32 8, %107
  %109 = sext i32 %108 to i64
  %110 = getelementptr inbounds [16 x i32], ptr %6, i64 0, i64 %109
  %111 = load i32, ptr %110, align 4, !tbaa !9
  %112 = add nsw i32 %106, %111
  store i32 %112, ptr %12, align 4, !tbaa !9
  call void @llvm.lifetime.start.p0(i64 4, ptr %13) #8
  %113 = load i32, ptr %7, align 4, !tbaa !9
  %114 = add nsw i32 4, %113
  %115 = sext i32 %114 to i64
  %116 = getelementptr inbounds [16 x i32], ptr %6, i64 0, i64 %115
  %117 = load i32, ptr %116, align 4, !tbaa !9
  %118 = load i32, ptr %7, align 4, !tbaa !9
  %119 = add nsw i32 12, %118
  %120 = sext i32 %119 to i64
  %121 = getelementptr inbounds [16 x i32], ptr %6, i64 0, i64 %120
  %122 = load i32, ptr %121, align 4, !tbaa !9
  %123 = add nsw i32 %117, %122
  store i32 %123, ptr %13, align 4, !tbaa !9
  call void @llvm.lifetime.start.p0(i64 4, ptr %14) #8
  %124 = load i32, ptr %7, align 4, !tbaa !9
  %125 = add nsw i32 4, %124
  %126 = sext i32 %125 to i64
  %127 = getelementptr inbounds [16 x i32], ptr %6, i64 0, i64 %126
  %128 = load i32, ptr %127, align 4, !tbaa !9
  %129 = load i32, ptr %7, align 4, !tbaa !9
  %130 = add nsw i32 12, %129
  %131 = sext i32 %130 to i64
  %132 = getelementptr inbounds [16 x i32], ptr %6, i64 0, i64 %131
  %133 = load i32, ptr %132, align 4, !tbaa !9
  %134 = sub nsw i32 %128, %133
  store i32 %134, ptr %14, align 4, !tbaa !9
  call void @llvm.lifetime.start.p0(i64 4, ptr %15) #8
  %135 = load i32, ptr %7, align 4, !tbaa !9
  %136 = add nsw i32 0, %135
  %137 = sext i32 %136 to i64
  %138 = getelementptr inbounds [16 x i32], ptr %6, i64 0, i64 %137
  %139 = load i32, ptr %138, align 4, !tbaa !9
  %140 = load i32, ptr %7, align 4, !tbaa !9
  %141 = add nsw i32 8, %140
  %142 = sext i32 %141 to i64
  %143 = getelementptr inbounds [16 x i32], ptr %6, i64 0, i64 %142
  %144 = load i32, ptr %143, align 4, !tbaa !9
  %145 = sub nsw i32 %139, %144
  store i32 %145, ptr %15, align 4, !tbaa !9
  call void @llvm.lifetime.start.p0(i64 4, ptr %16) #8
  %146 = load i32, ptr %12, align 4, !tbaa !9
  %147 = load i32, ptr %13, align 4, !tbaa !9
  %148 = add nsw i32 %146, %147
  store i32 %148, ptr %16, align 4, !tbaa !9
  call void @llvm.lifetime.start.p0(i64 4, ptr %17) #8
  %149 = load i32, ptr %15, align 4, !tbaa !9
  %150 = load i32, ptr %14, align 4, !tbaa !9
  %151 = add nsw i32 %149, %150
  store i32 %151, ptr %17, align 4, !tbaa !9
  call void @llvm.lifetime.start.p0(i64 4, ptr %18) #8
  %152 = load i32, ptr %15, align 4, !tbaa !9
  %153 = load i32, ptr %14, align 4, !tbaa !9
  %154 = sub nsw i32 %152, %153
  store i32 %154, ptr %18, align 4, !tbaa !9
  call void @llvm.lifetime.start.p0(i64 4, ptr %19) #8
  %155 = load i32, ptr %12, align 4, !tbaa !9
  %156 = load i32, ptr %13, align 4, !tbaa !9
  %157 = sub nsw i32 %155, %156
  store i32 %157, ptr %19, align 4, !tbaa !9
  %158 = load ptr, ptr %4, align 8, !tbaa !20
  %159 = getelementptr inbounds i16, ptr %158, i64 0
  %160 = load i16, ptr %159, align 2, !tbaa !23
  %161 = zext i16 %160 to i32
  %162 = load i32, ptr %16, align 4, !tbaa !9
  %163 = call i32 @llvm.abs.i32(i32 %162, i1 true)
  %164 = mul nsw i32 %161, %163
  %165 = load i32, ptr %5, align 4, !tbaa !9
  %166 = add nsw i32 %165, %164
  store i32 %166, ptr %5, align 4, !tbaa !9
  %167 = load ptr, ptr %4, align 8, !tbaa !20
  %168 = getelementptr inbounds i16, ptr %167, i64 4
  %169 = load i16, ptr %168, align 2, !tbaa !23
  %170 = zext i16 %169 to i32
  %171 = load i32, ptr %17, align 4, !tbaa !9
  %172 = call i32 @llvm.abs.i32(i32 %171, i1 true)
  %173 = mul nsw i32 %170, %172
  %174 = load i32, ptr %5, align 4, !tbaa !9
  %175 = add nsw i32 %174, %173
  store i32 %175, ptr %5, align 4, !tbaa !9
  %176 = load ptr, ptr %4, align 8, !tbaa !20
  %177 = getelementptr inbounds i16, ptr %176, i64 8
  %178 = load i16, ptr %177, align 2, !tbaa !23
  %179 = zext i16 %178 to i32
  %180 = load i32, ptr %18, align 4, !tbaa !9
  %181 = call i32 @llvm.abs.i32(i32 %180, i1 true)
  %182 = mul nsw i32 %179, %181
  %183 = load i32, ptr %5, align 4, !tbaa !9
  %184 = add nsw i32 %183, %182
  store i32 %184, ptr %5, align 4, !tbaa !9
  %185 = load ptr, ptr %4, align 8, !tbaa !20
  %186 = getelementptr inbounds i16, ptr %185, i64 12
  %187 = load i16, ptr %186, align 2, !tbaa !23
  %188 = zext i16 %187 to i32
  %189 = load i32, ptr %19, align 4, !tbaa !9
  %190 = call i32 @llvm.abs.i32(i32 %189, i1 true)
  %191 = mul nsw i32 %188, %190
  %192 = load i32, ptr %5, align 4, !tbaa !9
  %193 = add nsw i32 %192, %191
  store i32 %193, ptr %5, align 4, !tbaa !9
  call void @llvm.lifetime.end.p0(i64 4, ptr %19) #8
  call void @llvm.lifetime.end.p0(i64 4, ptr %18) #8
  call void @llvm.lifetime.end.p0(i64 4, ptr %17) #8
  call void @llvm.lifetime.end.p0(i64 4, ptr %16) #8
  call void @llvm.lifetime.end.p0(i64 4, ptr %15) #8
  call void @llvm.lifetime.end.p0(i64 4, ptr %14) #8
  call void @llvm.lifetime.end.p0(i64 4, ptr %13) #8
  call void @llvm.lifetime.end.p0(i64 4, ptr %12) #8
  br label %194

194:                                              ; preds = %101
  %195 = load i32, ptr %7, align 4, !tbaa !9
  %196 = add nsw i32 %195, 1
  store i32 %196, ptr %7, align 4, !tbaa !9
  %197 = load ptr, ptr %4, align 8, !tbaa !20
  %198 = getelementptr inbounds nuw i16, ptr %197, i32 1
  store ptr %198, ptr %4, align 8, !tbaa !20
  br label %98, !llvm.loop !41

199:                                              ; preds = %98
  %200 = load i32, ptr %5, align 4, !tbaa !9
  call void @llvm.lifetime.end.p0(i64 4, ptr %7) #8
  call void @llvm.lifetime.end.p0(i64 64, ptr %6) #8
  call void @llvm.lifetime.end.p0(i64 4, ptr %5) #8
  ret i32 %200
}