; Function Attrs: nofree norecurse nosync nounwind memory(argmem: read) uwtable
define internal fastcc range(i32 0, -2147483648) i32 @TTransform(ptr noalias noundef readonly captures(none) %0, ptr noalias noundef readonly captures(none) %1) unnamed_addr #5 {
  %3 = alloca [16 x i32], align 16
  call void @llvm.lifetime.start.p0(i64 64, ptr nonnull %3) #15
  br label %4

4:                                                ; preds = %2, %4
  %indvars.iv = phi i64 [ 0, %2 ], [ %indvars.iv.next, %4 ]
  %.058 = phi ptr [ %0, %2 ], [ %32, %4 ]
  %5 = load i8, ptr %.058, align 1, !tbaa !14
  %6 = zext i8 %5 to i32
  %7 = getelementptr inbounds nuw i8, ptr %.058, i64 2
  %8 = load i8, ptr %7, align 1, !tbaa !14
  %9 = zext i8 %8 to i32
  %10 = add nuw nsw i32 %9, %6
  %11 = getelementptr inbounds nuw i8, ptr %.058, i64 1
  %12 = load i8, ptr %11, align 1, !tbaa !14
  %13 = zext i8 %12 to i32
  %14 = getelementptr inbounds nuw i8, ptr %.058, i64 3
  %15 = load i8, ptr %14, align 1, !tbaa !14
  %16 = zext i8 %15 to i32
  %17 = add nuw nsw i32 %16, %13
  %18 = sub nsw i32 %13, %16
  %19 = sub nsw i32 %6, %9
  %20 = add nuw nsw i32 %17, %10
  %21 = shl nuw nsw i64 %indvars.iv, 2
  %22 = getelementptr inbounds nuw [16 x i32], ptr %3, i64 0, i64 %21
  store i32 %20, ptr %22, align 16, !tbaa !3
  %23 = add nsw i32 %18, %19
  %24 = or disjoint i64 %21, 1
  %25 = getelementptr inbounds nuw [16 x i32], ptr %3, i64 0, i64 %24
  store i32 %23, ptr %25, align 4, !tbaa !3
  %26 = sub nsw i32 %19, %18
  %27 = or disjoint i64 %21, 2
  %28 = getelementptr inbounds nuw [16 x i32], ptr %3, i64 0, i64 %27
  store i32 %26, ptr %28, align 8, !tbaa !3
  %29 = sub nsw i32 %10, %17
  %30 = or disjoint i64 %21, 3
  %31 = getelementptr inbounds nuw [16 x i32], ptr %3, i64 0, i64 %30
  store i32 %29, ptr %31, align 4, !tbaa !3
  %indvars.iv.next = add nuw nsw i64 %indvars.iv, 1
  %32 = getelementptr inbounds nuw i8, ptr %.058, i64 32
  %exitcond.not = icmp eq i64 %indvars.iv.next, 4
  br i1 %exitcond.not, label %.preheader, label %4, !llvm.loop !37

.preheader:                                       ; preds = %4, %.preheader
  %indvars.iv63 = phi i64 [ %indvars.iv.next64, %.preheader ], [ 0, %4 ]
  %.05461 = phi ptr [ %75, %.preheader ], [ %1, %4 ]
  %.05560 = phi i32 [ %74, %.preheader ], [ 0, %4 ]
  %33 = getelementptr inbounds nuw [16 x i32], ptr %3, i64 0, i64 %indvars.iv63
  %34 = load i32, ptr %33, align 4, !tbaa !3
  %35 = or disjoint i64 %indvars.iv63, 8
  %36 = getelementptr inbounds nuw [16 x i32], ptr %3, i64 0, i64 %35
  %37 = load i32, ptr %36, align 4, !tbaa !3
  %38 = add nsw i32 %37, %34
  %39 = or disjoint i64 %indvars.iv63, 4
  %40 = getelementptr inbounds nuw [16 x i32], ptr %3, i64 0, i64 %39
  %41 = load i32, ptr %40, align 4, !tbaa !3
  %42 = or disjoint i64 %indvars.iv63, 12
  %43 = getelementptr inbounds nuw [16 x i32], ptr %3, i64 0, i64 %42
  %44 = load i32, ptr %43, align 4, !tbaa !3
  %45 = add nsw i32 %44, %41
  %46 = sub nsw i32 %41, %44
  %47 = sub nsw i32 %34, %37
  %48 = add nsw i32 %45, %38
  %49 = add nsw i32 %46, %47
  %50 = sub nsw i32 %47, %46
  %51 = sub nsw i32 %38, %45
  %52 = load i16, ptr %.05461, align 2, !tbaa !17
  %53 = zext i16 %52 to i32
  %54 = tail call i32 @llvm.abs.i32(i32 %48, i1 true)
  %55 = mul nuw nsw i32 %54, %53
  %56 = add nuw nsw i32 %55, %.05560
  %57 = getelementptr inbounds nuw i8, ptr %.05461, i64 8
  %58 = load i16, ptr %57, align 2, !tbaa !17
  %59 = zext i16 %58 to i32
  %60 = tail call i32 @llvm.abs.i32(i32 %49, i1 true)
  %61 = mul nuw nsw i32 %60, %59
  %62 = add nuw nsw i32 %56, %61
  %63 = getelementptr inbounds nuw i8, ptr %.05461, i64 16
  %64 = load i16, ptr %63, align 2, !tbaa !17
  %65 = zext i16 %64 to i32
  %66 = tail call i32 @llvm.abs.i32(i32 %50, i1 true)
  %67 = mul nuw nsw i32 %66, %65
  %68 = add nuw nsw i32 %62, %67
  %69 = getelementptr inbounds nuw i8, ptr %.05461, i64 24
  %70 = load i16, ptr %69, align 2, !tbaa !17
  %71 = zext i16 %70 to i32
  %72 = tail call i32 @llvm.abs.i32(i32 %51, i1 true)
  %73 = mul nuw nsw i32 %72, %71
  %74 = add nuw nsw i32 %68, %73
  %indvars.iv.next64 = add nuw nsw i64 %indvars.iv63, 1
  %75 = getelementptr inbounds nuw i8, ptr %.05461, i64 2
  %exitcond66.not = icmp eq i64 %indvars.iv.next64, 4
  br i1 %exitcond66.not, label %76, label %.preheader, !llvm.loop !40

76:                                               ; preds = %.preheader
  call void @llvm.lifetime.end.p0(i64 64, ptr nonnull %3) #15
  ret i32 %74
}